target datalayout = "e-m:e-p270:32:32-p271:32:32-p272:64:64-i64:64-i128:128-f80:128-n8:16:32:64-S128"
target triple = "x86_64-unknown-linux-gnu"

%class.mpzzp_manager = type { ptr, i8, %class.mpz, %class.mpz, %class.mpz, i8, %class.mpz, %class.mpz, %class.mpz, %class.mpz }
%class.mpz = type { i32, i8, ptr }

@.str = private unnamed_addr constant [56 x i8] c"The prime number attempted in factorization is too big!\00", align 1
@_ZTIN11upolynomial21upolynomial_exceptionE = linkonce_odr hidden constant { ptr, ptr, ptr } { ptr getelementptr inbounds (ptr, ptr @_ZTVN10__cxxabiv120__si_class_type_infoE, i64 2), ptr @_ZTSN11upolynomial21upolynomial_exceptionE, ptr @_ZTI17default_exception }, comdat, align 8

; Function Attrs: mustprogress nounwind uwtable
define linkonce_odr hidden noundef nonnull align 8 dereferenceable(16) ptr @_ZNK13mpzzp_manager1pEv(ptr noundef nonnull align 8 dereferenceable(136) %this) #5 comdat align 2 {
entry:
  %this.addr = alloca ptr, align 8
  store ptr %this, ptr %this.addr, align 8
  %this1 = load ptr, ptr %this.addr, align 8
  %m_p = getelementptr inbounds %class.mpzzp_manager, ptr %this1, i32 0, i32 2
  ret ptr %m_p
}

; Function Attrs: mustprogress nounwind uwtable
define linkonce_odr hidden noundef nonnull align 8 dereferenceable(600) ptr @_ZNK13mpzzp_manager1mEv(ptr noundef nonnull align 8 dereferenceable(136) %this) #5 comdat align 2 {
entry:
  %this.addr = alloca ptr, align 8
  store ptr %this, ptr %this.addr, align 8
  %this1 = load ptr, ptr %this.addr, align 8
  %m_manager = getelementptr inbounds %class.mpzzp_manager, ptr %this1, i32 0, i32 0
  %0 = load ptr, ptr %m_manager, align 8
  ret ptr %0
}

; Function Attrs: mustprogress uwtable
define hidden noundef i32 @_ZN11upolynomial18get_p_from_managerERK13mpzzp_manager(ptr noundef nonnull align 8 dereferenceable(136) %zp_nm) #4 personality ptr @__gxx_personality_v0 {
entry:
  %zp_nm.addr = alloca ptr, align 8
  %nm = alloca ptr, align 8
  %p = alloca ptr, align 8
  %exn.slot = alloca ptr, align 8
  %ehselector.slot = alloca i32, align 4
  %p_uint64 = alloca i64, align 8
  %p_uint = alloca i32, align 4
  store ptr %zp_nm, ptr %zp_nm.addr, align 8
  %0 = load ptr, ptr %zp_nm.addr, align 8
  %call = call noundef nonnull align 8 dereferenceable(600) ptr @_ZNK13mpzzp_manager1mEv(ptr noundef nonnull align 8 dereferenceable(136) %0)
  store ptr %call, ptr %nm, align 8
  %1 = load ptr, ptr %zp_nm.addr, align 8
  %call1 = call noundef nonnull align 8 dereferenceable(16) ptr @_ZNK13mpzzp_manager1pEv(ptr noundef nonnull align 8 dereferenceable(136) %1)
  store ptr %call1, ptr %p, align 8
  %2 = load ptr, ptr %nm, align 8
  %3 = load ptr, ptr %p, align 8
  %call2 = call noundef zeroext i1 @_ZNK11mpz_managerILb0EE9is_uint64ERK3mpz(ptr noundef nonnull align 8 dereferenceable(600) %2, ptr noundef nonnull align 8 dereferenceable(16) %3)
  br i1 %call2, label %if.end, label %if.then

if.then:                                          ; preds = %entry
  %exception = call ptr @__cxa_allocate_exception(i64 40) #3
  invoke void @_ZN11upolynomial21upolynomial_exceptionC2EPKc(ptr noundef nonnull align 8 dereferenceable(40) %exception, ptr noundef @.str)
          to label %invoke.cont unwind label %lpad

invoke.cont:                                      ; preds = %if.then
  call void @__cxa_throw(ptr %exception, ptr @_ZTIN11upolynomial21upolynomial_exceptionE, ptr @_ZN11upolynomial21upolynomial_exceptionD2Ev) #14
  unreachable

lpad:                                             ; preds = %if.then
  %4 = landingpad { ptr, i32 }
          cleanup
  %5 = extractvalue { ptr, i32 } %4, 0
  store ptr %5, ptr %exn.slot, align 8
  %6 = extractvalue { ptr, i32 } %4, 1
  store i32 %6, ptr %ehselector.slot, align 4
  call void @__cxa_free_exception(ptr %exception) #3
  br label %eh.resume

if.end:                                           ; preds = %entry
  %7 = load ptr, ptr %nm, align 8
  %8 = load ptr, ptr %p, align 8
  %call3 = call noundef i64 @_ZNK11mpz_managerILb0EE10get_uint64ERK3mpz(ptr noundef nonnull align 8 dereferenceable(600) %7, ptr noundef nonnull align 8 dereferenceable(16) %8)
  store i64 %call3, ptr %p_uint64, align 8
  %9 = load i64, ptr %p_uint64, align 8
  %conv = trunc i64 %9 to i32
  store i32 %conv, ptr %p_uint, align 4
  %10 = load i32, ptr %p_uint, align 4
  %conv4 = zext i32 %10 to i64
  %11 = load i64, ptr %p_uint64, align 8
  %cmp = icmp ne i64 %conv4, %11
  br i1 %cmp, label %if.then5, label %if.end9

if.then5:                                         ; preds = %if.end
  %exception6 = call ptr @__cxa_allocate_exception(i64 40) #3
  invoke void @_ZN11upolynomial21upolynomial_exceptionC2EPKc(ptr noundef nonnull align 8 dereferenceable(40) %exception6, ptr noundef @.str)
          to label %invoke.cont8 unwind label %lpad7

invoke.cont8:                                     ; preds = %if.then5
  call void @__cxa_throw(ptr %exception6, ptr @_ZTIN11upolynomial21upolynomial_exceptionE, ptr @_ZN11upolynomial21upolynomial_exceptionD2Ev) #14
  unreachable

lpad7:                                            ; preds = %if.then5
  %12 = landingpad { ptr, i32 }
          cleanup
  %13 = extractvalue { ptr, i32 } %12, 0
  store ptr %13, ptr %exn.slot, align 8
  %14 = extractvalue { ptr, i32 } %12, 1
  store i32 %14, ptr %ehselector.slot, align 4
  call void @__cxa_free_exception(ptr %exception6) #3
  br label %eh.resume

if.end9:                                          ; preds = %if.end
  %15 = load i32, ptr %p_uint, align 4
  ret i32 %15

eh.resume:                                        ; preds = %lpad7, %lpad
  %exn = load ptr, ptr %exn.slot, align 8
  %sel = load i32, ptr %ehselector.slot, align 4
  %lpad.val = insertvalue { ptr, i32 } poison, ptr %exn, 0
  %lpad.val10 = insertvalue { ptr, i32 } %lpad.val, i32 %sel, 1
  resume { ptr, i32 } %lpad.val10
}