; Function Attrs: mustprogress uwtable
define hidden noundef i32 @_ZN11upolynomial18get_p_from_managerERK13mpzzp_manager(ptr noundef nonnull align 8 dereferenceable(136) %zp_nm) local_unnamed_addr #3 personality ptr @__gxx_personality_v0 {
entry:
  %0 = load ptr, ptr %zp_nm, align 8
  %m_p.i = getelementptr inbounds i8, ptr %zp_nm, i64 16
  %call2 = tail call noundef zeroext i1 @_ZNK11mpz_managerILb0EE9is_uint64ERK3mpz(ptr noundef nonnull align 8 dereferenceable(600) %0, ptr noundef nonnull align 8 dereferenceable(16) %m_p.i)
  br i1 %call2, label %if.end, label %if.then

if.then:                                          ; preds = %entry
  %exception = tail call ptr @__cxa_allocate_exception(i64 40) #16
  invoke void @_ZN11upolynomial21upolynomial_exceptionC2EPKc(ptr noundef nonnull align 8 dereferenceable(40) %exception, ptr noundef nonnull @.str)
          to label %invoke.cont unwind label %lpad

invoke.cont:                                      ; preds = %if.then
  tail call void @__cxa_throw(ptr nonnull %exception, ptr nonnull @_ZTIN11upolynomial21upolynomial_exceptionE, ptr nonnull @_ZN11upolynomial21upolynomial_exceptionD2Ev) #17
  unreachable

lpad:                                             ; preds = %if.then
  %1 = landingpad { ptr, i32 }
          cleanup
  br label %eh.resume

if.end:                                           ; preds = %entry
  %call3 = tail call noundef i64 @_ZNK11mpz_managerILb0EE10get_uint64ERK3mpz(ptr noundef nonnull align 8 dereferenceable(600) %0, ptr noundef nonnull align 8 dereferenceable(16) %m_p.i)
  %cmp.not = icmp ult i64 %call3, 4294967296
  br i1 %cmp.not, label %if.end9, label %if.then5

if.then5:                                         ; preds = %if.end
  %exception6 = tail call ptr @__cxa_allocate_exception(i64 40) #16
  invoke void @_ZN11upolynomial21upolynomial_exceptionC2EPKc(ptr noundef nonnull align 8 dereferenceable(40) %exception6, ptr noundef nonnull @.str)
          to label %invoke.cont8 unwind label %lpad7

invoke.cont8:                                     ; preds = %if.then5
  tail call void @__cxa_throw(ptr nonnull %exception6, ptr nonnull @_ZTIN11upolynomial21upolynomial_exceptionE, ptr nonnull @_ZN11upolynomial21upolynomial_exceptionD2Ev) #17
  unreachable

lpad7:                                            ; preds = %if.then5
  %2 = landingpad { ptr, i32 }
          cleanup
  br label %eh.resume

if.end9:                                          ; preds = %if.end
  %conv = trunc i64 %call3 to i32
  ret i32 %conv

eh.resume:                                        ; preds = %lpad7, %lpad
  %exception6.sink = phi ptr [ %exception6, %lpad7 ], [ %exception, %lpad ]
  %.pn = phi { ptr, i32 } [ %2, %lpad7 ], [ %1, %lpad ]
  tail call void @__cxa_free_exception(ptr %exception6.sink) #16
  resume { ptr, i32 } %.pn
}